target datalayout = "e-m:e-p270:32:32-p271:32:32-p272:64:64-i64:64-i128:128-f80:128-n8:16:32:64-S128"
target triple = "x86_64-pc-linux-gnu"

%struct.fragment_key = type { ptr, i32, i32 }

@fragment_hash = internal global ptr null, align 8

; Function Attrs: null_pointer_is_valid sspstrong uwtable
define internal ptr @fragment_hash_lookup(ptr noundef %0, i32 noundef %1, i32 noundef %2) #0 {
  %4 = alloca ptr, align 8
  %5 = alloca i32, align 4
  %6 = alloca i32, align 4
  %7 = alloca %struct.fragment_key, align 8
  %8 = alloca ptr, align 8
  store ptr %0, ptr %4, align 8
  store i32 %1, ptr %5, align 4
  store i32 %2, ptr %6, align 4
  call void @llvm.lifetime.start.p0(i64 16, ptr %7) #6
  call void @llvm.lifetime.start.p0(i64 8, ptr %8) #6
  %9 = load ptr, ptr %4, align 8
  %10 = getelementptr inbounds nuw %struct.fragment_key, ptr %7, i32 0, i32 0
  store ptr %9, ptr %10, align 8
  %11 = load i32, ptr %5, align 4
  %12 = getelementptr inbounds nuw %struct.fragment_key, ptr %7, i32 0, i32 1
  store i32 %11, ptr %12, align 8
  %13 = load i32, ptr %6, align 4
  %14 = getelementptr inbounds nuw %struct.fragment_key, ptr %7, i32 0, i32 2
  store i32 %13, ptr %14, align 4
  %15 = load ptr, ptr @fragment_hash, align 8
  %16 = call ptr @g_hash_table_lookup(ptr noundef %15, ptr noundef %7)
  store ptr %16, ptr %8, align 8
  %17 = load ptr, ptr %8, align 8
  call void @llvm.lifetime.end.p0(i64 8, ptr %8) #6
  call void @llvm.lifetime.end.p0(i64 16, ptr %7) #6
  ret ptr %17
}

; Function Attrs: null_pointer_is_valid sspstrong uwtable
define ptr @stream_find_frag(ptr noundef %0, i32 noundef %1, i32 noundef %2) #0 {
  %4 = alloca ptr, align 8
  %5 = alloca i32, align 4
  %6 = alloca i32, align 4
  store ptr %0, ptr %4, align 8
  store i32 %1, ptr %5, align 4
  store i32 %2, ptr %6, align 4
  %7 = load ptr, ptr %4, align 8
  %8 = load i32, ptr %5, align 4
  %9 = load i32, ptr %6, align 4
  %10 = call ptr @fragment_hash_lookup(ptr noundef %7, i32 noundef %8, i32 noundef %9)
  ret ptr %10
}