; Function Attrs: null_pointer_is_valid sspstrong uwtable
define ptr @stream_find_frag(ptr noundef %0, i32 noundef %1, i32 noundef %2) local_unnamed_addr #0 {
  %4 = alloca %struct.fragment_key, align 8
  call void @llvm.lifetime.start.p0(i64 16, ptr nonnull %4) #7
  store ptr %0, ptr %4, align 8
  %5 = getelementptr inbounds nuw i8, ptr %4, i64 8
  store i32 %1, ptr %5, align 8
  %6 = getelementptr inbounds nuw i8, ptr %4, i64 12
  store i32 %2, ptr %6, align 4
  %7 = load ptr, ptr @fragment_hash, align 8
  %8 = call ptr @g_hash_table_lookup(ptr noundef %7, ptr noundef nonnull %4)
  call void @llvm.lifetime.end.p0(i64 16, ptr nonnull %4) #7
  ret ptr %8
}